target datalayout = "e-m:e-p270:32:32-p271:32:32-p272:64:64-i64:64-i128:128-f80:128-n8:16:32:64-S128"
target triple = "x86_64-unknown-linux-gnu"

%"class.v8::Local" = type { %"class.v8::LocalBase" }
%"class.v8::LocalBase" = type { %"class.v8::IndirectHandleBase" }
%"class.v8::IndirectHandleBase" = type { ptr }
%"class.node::SendWrap" = type <{ %"class.node::ReqWrap", i64, i8, [7 x i8] }>
%"class.node::ReqWrap" = type { %"class.node::AsyncWrap", %"class.node::ReqWrapBase", ptr, %struct.uv_udp_send_s }
%"class.node::AsyncWrap" = type { %"class.node::BaseObject", i32, i8, double, double }
%"class.node::BaseObject" = type { %"class.node::MemoryRetainer", %"class.v8::Global", ptr, ptr }
%"class.node::MemoryRetainer" = type { ptr }
%"class.v8::Global" = type { %"class.v8::PersistentBase" }
%"class.v8::PersistentBase" = type { %"class.v8::IndirectHandleBase" }
%"class.node::ReqWrapBase" = type { ptr, %"class.node::ListNode" }
%"class.node::ListNode" = type { ptr, ptr }
%struct.uv_udp_send_s = type { ptr, i32, [6 x ptr], ptr, ptr, %struct.uv__queue, %struct.sockaddr_storage, i32, ptr, i64, ptr, [4 x %struct.uv_buf_t] }
%struct.uv__queue = type { ptr, ptr }
%struct.sockaddr_storage = type { i16, [118 x i8], i64 }
%struct.uv_buf_t = type { ptr, i64 }
%"class.node::UDPListener" = type { ptr, ptr }
%"class.node::UDPWrapBase" = type { ptr, ptr }
%"struct.std::__detail::_Hash_node_base" = type { ptr }
%"struct.std::__detail::_Prime_rehash_policy" = type { float, i64 }
%"class.v8::Global.21" = type { %"class.v8::PersistentBase.22" }
%"class.v8::PersistentBase.22" = type { %"class.v8::IndirectHandleBase" }
%"class.std::vector.100" = type { %"struct.std::_Vector_base.101" }
%"struct.std::_Vector_base.101" = type { %"struct.std::_Vector_base<std::__cxx11::basic_string<char>, std::allocator<std::__cxx11::basic_string<char>>>::_Vector_impl" }
%"struct.std::_Vector_base<std::__cxx11::basic_string<char>, std::allocator<std::__cxx11::basic_string<char>>>::_Vector_impl" = type { %"struct.std::_Vector_base<std::__cxx11::basic_string<char>, std::allocator<std::__cxx11::basic_string<char>>>::_Vector_impl_data" }
%"struct.std::_Vector_base<std::__cxx11::basic_string<char>, std::allocator<std::__cxx11::basic_string<char>>>::_Vector_impl_data" = type { ptr, ptr, ptr }
%"class.node::ListNode.154" = type { ptr, ptr }
%"class.node::CleanupQueue" = type { %"class.node::MemoryRetainer", %"class.std::unordered_set.188", i64 }
%"class.std::unordered_set.188" = type { %"class.std::_Hashtable.189" }
%"class.std::_Hashtable.189" = type { ptr, i64, %"struct.std::__detail::_Hash_node_base", i64, %"struct.std::__detail::_Prime_rehash_policy", ptr }
%"class.node::UDPWrap" = type { %"class.node::HandleWrap", %"class.node::UDPWrapBase", %"class.node::UDPListener", %struct.uv_udp_s, i8, %"class.v8::Local" }
%"class.node::HandleWrap" = type { %"class.node::AsyncWrap", i32, %"class.node::ListNode.154", ptr }
%struct.uv_udp_s = type { ptr, ptr, i32, ptr, %struct.uv__queue, %union.anon.260, ptr, i32, i64, i64, ptr, ptr, %struct.uv__io_s, %struct.uv__queue, %struct.uv__queue }
%union.anon.260 = type { [4 x ptr] }
%struct.uv__io_s = type { ptr, %struct.uv__queue, %struct.uv__queue, i32, i32, i32 }
%"class.node::Realm" = type { %"class.node::MemoryRetainer", %"class.std::set", %"class.std::set.361", %"class.std::set.361", %"class.std::vector.100", ptr, ptr, %"class.v8::Global.369", %"class.v8::Global.21", %"class.v8::Global.21", %"class.v8::Global.21", %"class.v8::Global", %"class.v8::Global.21", %"class.v8::Global.21", %"class.v8::Global.21", %"class.v8::Global", %"class.v8::Global.21", %"class.v8::Global.21", %"class.v8::Global.21", %"class.v8::Global.21", %"class.v8::Global.21", %"class.v8::Global.21", %"class.v8::Global.21", %"class.v8::Global.21", %"class.v8::Global.21", %"class.v8::Global.21", %"class.v8::Global.21", %"class.v8::Global.21", %"class.v8::Global.21", %"class.v8::Global.21", %"class.v8::Global.21", %"class.v8::Global.21", %"class.v8::Global.21", %"class.v8::Global.21", %"class.v8::Global.21", %"class.v8::Global.21", %"class.v8::Global.21", %"class.v8::Global.21", %"class.v8::Global.21", %"class.v8::Global.21", %"class.v8::Global.21", %"class.v8::Global.21", %"class.v8::Global.21", %"class.v8::Global.21", %"class.v8::Global", %"class.v8::Global.21", %"class.v8::Global.21", %"class.v8::Global.21", %"class.v8::Global", %"class.v8::Global", %"class.v8::Global", %"class.v8::Global", %"class.v8::Global", %"class.v8::Global", %"class.v8::Global.21", %"class.v8::Global.21", %"class.v8::Global.21", %"class.v8::Global.21", %"class.v8::Global.21", %"class.v8::Global.21", %"class.v8::Global.21", %"class.v8::Global.21", %"class.v8::Global.21", %"class.v8::Global.21", %"class.v8::Global.21", %"class.v8::Global.21", %"class.v8::Global.21", %"class.v8::Global.21", i32, i8, i64, i64, %"struct.std::array.371", %"class.node::CleanupQueue" }
%"class.std::set" = type { %"class.std::_Rb_tree" }
%"class.std::_Rb_tree" = type { %"struct.std::_Rb_tree<node::node_module *, node::node_module *, std::_Identity<node::node_module *>, std::less<node::node_module *>>::_Rb_tree_impl" }
%"struct.std::_Rb_tree<node::node_module *, node::node_module *, std::_Identity<node::node_module *>, std::less<node::node_module *>>::_Rb_tree_impl" = type { %"struct.std::_Rb_tree_key_compare", %"struct.std::_Rb_tree_header" }
%"struct.std::_Rb_tree_key_compare" = type { %"struct.std::less" }
%"struct.std::less" = type { i8 }
%"struct.std::_Rb_tree_header" = type { %"struct.std::_Rb_tree_node_base", i64 }
%"struct.std::_Rb_tree_node_base" = type { i32, ptr, ptr, ptr }
%"class.std::set.361" = type { %"class.std::_Rb_tree.362" }
%"class.std::_Rb_tree.362" = type { %"struct.std::_Rb_tree<std::__cxx11::basic_string<char>, std::__cxx11::basic_string<char>, std::_Identity<std::__cxx11::basic_string<char>>, std::less<std::__cxx11::basic_string<char>>>::_Rb_tree_impl" }
%"struct.std::_Rb_tree<std::__cxx11::basic_string<char>, std::__cxx11::basic_string<char>, std::_Identity<std::__cxx11::basic_string<char>>, std::less<std::__cxx11::basic_string<char>>>::_Rb_tree_impl" = type { %"struct.std::_Rb_tree_key_compare.366", %"struct.std::_Rb_tree_header" }
%"struct.std::_Rb_tree_key_compare.366" = type { %"struct.std::less.367" }
%"struct.std::less.367" = type { i8 }
%"class.v8::Global.369" = type { %"class.v8::PersistentBase.370" }
%"class.v8::PersistentBase.370" = type { %"class.v8::IndirectHandleBase" }
%"struct.std::array.371" = type { [12 x %"class.node::BaseObjectPtrImpl.372"] }
%"class.node::BaseObjectPtrImpl.372" = type { %union.anon.373 }
%union.anon.373 = type { ptr }

@_ZN4node8SendWrapC1EPNS_11EnvironmentEN2v85LocalINS3_6ObjectEEEb = dso_local unnamed_addr alias void (ptr, ptr, ptr, i1), ptr @_ZN4node8SendWrapC2EPNS_11EnvironmentEN2v85LocalINS3_6ObjectEEEb

; Function Attrs: mustprogress nounwind uwtable
define linkonce_odr dso_local noundef ptr @_ZNK4node5Realm3envEv(ptr noundef nonnull align 8 dereferenceable(872) %this) #4 comdat align 2 {
entry:
  %this.addr = alloca ptr, align 8
  store ptr %this, ptr %this.addr, align 8
  %this1 = load ptr, ptr %this.addr, align 8
  %env_ = getelementptr inbounds %"class.node::Realm", ptr %this1, i32 0, i32 5
  %0 = load ptr, ptr %env_, align 8
  ret ptr %0
}

; Function Attrs: mustprogress nounwind uwtable
define linkonce_odr dso_local noundef ptr @_ZNK4node10BaseObject3envEv(ptr noundef nonnull align 8 dereferenceable(32) %this) #4 comdat align 2 {
entry:
  %this.addr = alloca ptr, align 8
  store ptr %this, ptr %this.addr, align 8
  %this1 = load ptr, ptr %this.addr, align 8
  %realm_ = getelementptr inbounds %"class.node::BaseObject", ptr %this1, i32 0, i32 2
  %0 = load ptr, ptr %realm_, align 8
  %call = call noundef ptr @_ZNK4node5Realm3envEv(ptr noundef nonnull align 8 dereferenceable(872) %0)
  ret ptr %call
}

; Function Attrs: mustprogress nounwind uwtable
define dso_local noundef ptr @_ZN4node7UDPWrap14CreateSendWrapEm(ptr noundef nonnull align 8 dereferenceable(352) %this, i64 noundef %msg_size) unnamed_addr #4 align 2 {
entry:
  %this.addr = alloca ptr, align 8
  %msg_size.addr = alloca i64, align 8
  %req_wrap = alloca ptr, align 8
  %agg.tmp = alloca %"class.v8::Local", align 8
  store ptr %this, ptr %this.addr, align 8
  store i64 %msg_size, ptr %msg_size.addr, align 8
  %this1 = load ptr, ptr %this.addr, align 8
  %call = call noalias noundef nonnull ptr @_Znwm(i64 noundef 424) #14
  %call2 = call noundef ptr @_ZNK4node10BaseObject3envEv(ptr noundef nonnull align 8 dereferenceable(32) %this1)
  %current_send_req_wrap_ = getelementptr inbounds %"class.node::UDPWrap", ptr %this1, i32 0, i32 5
  call void @llvm.memcpy.p0.p0.i64(ptr align 8 %agg.tmp, ptr align 8 %current_send_req_wrap_, i64 8, i1 false)
  %current_send_has_callback_ = getelementptr inbounds %"class.node::UDPWrap", ptr %this1, i32 0, i32 4
  %0 = load i8, ptr %current_send_has_callback_, align 8
  %tobool = trunc i8 %0 to i1
  %coerce.dive = getelementptr inbounds %"class.v8::Local", ptr %agg.tmp, i32 0, i32 0
  %coerce.dive3 = getelementptr inbounds %"class.v8::LocalBase", ptr %coerce.dive, i32 0, i32 0
  %coerce.dive4 = getelementptr inbounds %"class.v8::IndirectHandleBase", ptr %coerce.dive3, i32 0, i32 0
  %1 = load ptr, ptr %coerce.dive4, align 8
  call void @_ZN4node8SendWrapC1EPNS_11EnvironmentEN2v85LocalINS3_6ObjectEEEb(ptr noundef nonnull align 8 dereferenceable(417) %call, ptr noundef %call2, ptr %1, i1 noundef zeroext %tobool)
  store ptr %call, ptr %req_wrap, align 8
  %2 = load i64, ptr %msg_size.addr, align 8
  %3 = load ptr, ptr %req_wrap, align 8
  %msg_size5 = getelementptr inbounds %"class.node::SendWrap", ptr %3, i32 0, i32 1
  store i64 %2, ptr %msg_size5, align 8
  %4 = load ptr, ptr %req_wrap, align 8
  ret ptr %4
}