; Function Attrs: mustprogress nounwind uwtable
define dso_local noundef nonnull ptr @_ZN4node7UDPWrap14CreateSendWrapEm(ptr nocapture noundef nonnull readonly align 8 dereferenceable(352) %this, i64 noundef %msg_size) unnamed_addr #3 align 2 {
entry:
  %call = tail call noalias noundef nonnull dereferenceable(424) ptr @_Znwm(i64 noundef 424) #21
  %realm_.i = getelementptr inbounds i8, ptr %this, i64 16
  %0 = load ptr, ptr %realm_.i, align 8
  %env_.i.i = getelementptr inbounds i8, ptr %0, i64 176
  %1 = load ptr, ptr %env_.i.i, align 8
  %current_send_req_wrap_ = getelementptr inbounds i8, ptr %this, i64 344
  %agg.tmp.sroa.0.0.copyload = load ptr, ptr %current_send_req_wrap_, align 8
  %current_send_has_callback_ = getelementptr inbounds i8, ptr %this, i64 336
  %2 = load i8, ptr %current_send_has_callback_, align 8
  tail call void @_ZN4node9AsyncWrapC2EPNS_11EnvironmentEN2v85LocalINS3_6ObjectEEENS0_12ProviderTypeEd(ptr noundef nonnull align 8 dereferenceable(56) %call, ptr noundef %1, ptr %agg.tmp.sroa.0.0.copyload, i32 noundef 42, double noundef -1.000000e+00) #19
  %3 = getelementptr inbounds i8, ptr %call, i64 56
  store ptr getelementptr inbounds ({ [6 x ptr] }, ptr @_ZTVN4node11ReqWrapBaseE, i64 0, i32 0, i64 2), ptr %3, align 8
  %req_wrap_queue_.i.i.i = getelementptr inbounds i8, ptr %call, i64 64
  store ptr %req_wrap_queue_.i.i.i, ptr %req_wrap_queue_.i.i.i, align 8
  %next_.i.i.i.i = getelementptr inbounds i8, ptr %call, i64 72
  store ptr %req_wrap_queue_.i.i.i, ptr %next_.i.i.i.i, align 8
  %principal_realm_.i.i.i.i = getelementptr inbounds i8, ptr %1, i64 2728
  %4 = load ptr, ptr %principal_realm_.i.i.i.i, align 8
  %has_run_bootstrapping_code_.i.i.i.i.i = getelementptr inbounds i8, ptr %4, i64 684
  %5 = load i8, ptr %has_run_bootstrapping_code_.i.i.i.i.i, align 4
  %6 = and i8 %5, 1
  %tobool.i.i.not.i.i.i = icmp eq i8 %6, 0
  br i1 %tobool.i.i.not.i.i.i, label %do.body4.i.i.i, label %_ZN4node8SendWrapC2EPNS_11EnvironmentEN2v85LocalINS3_6ObjectEEEb.exit

do.body4.i.i.i:                                   ; preds = %entry
  tail call void @_ZN4node6AssertERKNS_13AssertionInfoE(ptr noundef nonnull align 8 dereferenceable(24) @_ZZN4node11ReqWrapBaseC1EPNS_11EnvironmentEE4args) #19
  tail call void @abort() #20
  unreachable

_ZN4node8SendWrapC2EPNS_11EnvironmentEN2v85LocalINS3_6ObjectEEEb.exit: ; preds = %entry
  %7 = and i8 %2, 1
  %req_wrap_queue_.i.i.i.i = getelementptr inbounds i8, ptr %1, i64 2192
  %8 = load ptr, ptr %req_wrap_queue_.i.i.i.i, align 8
  %next_.i2.i.i.i = getelementptr inbounds i8, ptr %8, i64 8
  store ptr %req_wrap_queue_.i.i.i, ptr %next_.i2.i.i.i, align 8
  %9 = load ptr, ptr %req_wrap_queue_.i.i.i.i, align 8
  store ptr %9, ptr %req_wrap_queue_.i.i.i, align 8
  store ptr %req_wrap_queue_.i.i.i.i, ptr %next_.i.i.i.i, align 8
  store ptr %req_wrap_queue_.i.i.i, ptr %req_wrap_queue_.i.i.i.i, align 8
  store ptr getelementptr inbounds ({ [22 x ptr], [6 x ptr] }, ptr @_ZTVN4node7ReqWrapI13uv_udp_send_sEE, i64 0, i32 0, i64 2), ptr %call, align 8
  store ptr getelementptr inbounds ({ [22 x ptr], [6 x ptr] }, ptr @_ZTVN4node7ReqWrapI13uv_udp_send_sEE, i64 0, i32 1, i64 2), ptr %3, align 8
  %original_callback_.i.i = getelementptr inbounds i8, ptr %call, i64 80
  store ptr null, ptr %original_callback_.i.i, align 8
  tail call void @_ZN4node10BaseObject8MakeWeakEv(ptr noundef nonnull align 8 dereferenceable(32) %call) #19
  tail call void @llvm.memset.p0.i64(ptr noundef nonnull align 8 dereferenceable(16) %original_callback_.i.i, i8 0, i64 16, i1 false)
  store ptr getelementptr inbounds ({ [22 x ptr], [6 x ptr] }, ptr @_ZTVN4node8SendWrapE, i64 0, i32 0, i64 2), ptr %call, align 8
  store ptr getelementptr inbounds ({ [22 x ptr], [6 x ptr] }, ptr @_ZTVN4node8SendWrapE, i64 0, i32 1, i64 2), ptr %3, align 8
  %have_callback_.i = getelementptr inbounds i8, ptr %call, i64 416
  store i8 %7, ptr %have_callback_.i, align 8
  %msg_size5 = getelementptr inbounds i8, ptr %call, i64 408
  store i64 %msg_size, ptr %msg_size5, align 8
  ret ptr %call
}